target datalayout = "e-m:e-p270:32:32-p271:32:32-p272:64:64-i64:64-i128:128-f80:128-n8:16:32:64-S128"
target triple = "x86_64-pc-linux-gnu"

%struct.kmac_data_st = type { ptr, ptr, %struct.PROV_DIGEST, i64, i64, i64, i32, [672 x i8], [516 x i8] }
%struct.PROV_DIGEST = type { ptr, ptr, ptr }

@.str.5 = private unnamed_addr constant [5 x i8] c"size\00", align 1
@.str.6 = private unnamed_addr constant [11 x i8] c"block-size\00", align 1

; Function Attrs: nounwind uwtable
define internal i32 @kmac_get_ctx_params(ptr noundef %0, ptr noundef %1) #0 {
  %3 = alloca i32, align 4
  %4 = alloca ptr, align 8
  %5 = alloca ptr, align 8
  %6 = alloca ptr, align 8
  %7 = alloca ptr, align 8
  %8 = alloca i32, align 4
  %9 = alloca i32, align 4
  store ptr %0, ptr %4, align 8, !tbaa !3
  store ptr %1, ptr %5, align 8, !tbaa !25
  call void @llvm.lifetime.start.p0(i64 8, ptr %6) #7
  %10 = load ptr, ptr %4, align 8, !tbaa !3
  store ptr %10, ptr %6, align 8, !tbaa !7
  call void @llvm.lifetime.start.p0(i64 8, ptr %7) #7
  call void @llvm.lifetime.start.p0(i64 4, ptr %8) #7
  %11 = load ptr, ptr %5, align 8, !tbaa !25
  %12 = call ptr @OSSL_PARAM_locate(ptr noundef %11, ptr noundef @.str.5)
  store ptr %12, ptr %7, align 8, !tbaa !25
  %13 = icmp ne ptr %12, null
  br i1 %13, label %14, label %22

14:                                               ; preds = %2
  %15 = load ptr, ptr %7, align 8, !tbaa !25
  %16 = load ptr, ptr %6, align 8, !tbaa !7
  %17 = getelementptr inbounds nuw %struct.kmac_data_st, ptr %16, i32 0, i32 3
  %18 = load i64, ptr %17, align 8, !tbaa !18
  %19 = call i32 @OSSL_PARAM_set_size_t(ptr noundef %15, i64 noundef %18)
  %20 = icmp ne i32 %19, 0
  br i1 %20, label %22, label %21

21:                                               ; preds = %14
  store i32 0, ptr %3, align 4
  store i32 1, ptr %9, align 4
  br label %38

22:                                               ; preds = %14, %2
  %23 = load ptr, ptr %5, align 8, !tbaa !25
  %24 = call ptr @OSSL_PARAM_locate(ptr noundef %23, ptr noundef @.str.6)
  store ptr %24, ptr %7, align 8, !tbaa !25
  %25 = icmp ne ptr %24, null
  br i1 %25, label %26, label %37

26:                                               ; preds = %22
  %27 = load ptr, ptr %6, align 8, !tbaa !7
  %28 = getelementptr inbounds nuw %struct.kmac_data_st, ptr %27, i32 0, i32 2
  %29 = call ptr @ossl_prov_digest_md(ptr noundef %28)
  %30 = call i32 @EVP_MD_get_block_size(ptr noundef %29)
  store i32 %30, ptr %8, align 4, !tbaa !28
  %31 = load ptr, ptr %7, align 8, !tbaa !25
  %32 = load i32, ptr %8, align 4, !tbaa !28
  %33 = call i32 @OSSL_PARAM_set_int(ptr noundef %31, i32 noundef %32)
  %34 = icmp ne i32 %33, 0
  br i1 %34, label %36, label %35

35:                                               ; preds = %26
  store i32 0, ptr %3, align 4
  store i32 1, ptr %9, align 4
  br label %38

36:                                               ; preds = %26
  br label %37

37:                                               ; preds = %36, %22
  store i32 1, ptr %3, align 4
  store i32 1, ptr %9, align 4
  br label %38

38:                                               ; preds = %37, %35, %21
  call void @llvm.lifetime.end.p0(i64 4, ptr %8) #7
  call void @llvm.lifetime.end.p0(i64 8, ptr %7) #7
  call void @llvm.lifetime.end.p0(i64 8, ptr %6) #7
  %39 = load i32, ptr %3, align 4
  ret i32 %39
}