; Function Attrs: nounwind uwtable
define internal range(i32 0, 2) i32 @kmac_get_ctx_params(ptr noundef %0, ptr noundef %1) #0 {
  %3 = tail call ptr @OSSL_PARAM_locate(ptr noundef %1, ptr noundef nonnull @.str.5) #7
  %.not = icmp eq ptr %3, null
  br i1 %.not, label %8, label %4

4:                                                ; preds = %2
  %5 = getelementptr inbounds nuw i8, ptr %0, i64 40
  %6 = load i64, ptr %5, align 8, !tbaa !17
  %7 = tail call i32 @OSSL_PARAM_set_size_t(ptr noundef nonnull %3, i64 noundef %6) #7
  %.not10 = icmp eq i32 %7, 0
  br i1 %.not10, label %16, label %8

8:                                                ; preds = %4, %2
  %9 = tail call ptr @OSSL_PARAM_locate(ptr noundef %1, ptr noundef nonnull @.str.6) #7
  %.not11 = icmp eq ptr %9, null
  br i1 %.not11, label %15, label %10

10:                                               ; preds = %8
  %11 = getelementptr inbounds nuw i8, ptr %0, i64 16
  %12 = tail call ptr @ossl_prov_digest_md(ptr noundef nonnull %11) #7
  %13 = tail call i32 @EVP_MD_get_block_size(ptr noundef %12) #7
  %14 = tail call i32 @OSSL_PARAM_set_int(ptr noundef nonnull %9, i32 noundef %13) #7
  %.not12 = icmp eq i32 %14, 0
  br i1 %.not12, label %16, label %15

15:                                               ; preds = %10, %8
  br label %16

16:                                               ; preds = %10, %4, %15
  %.0 = phi i32 [ 1, %15 ], [ 0, %4 ], [ 0, %10 ]
  ret i32 %.0
}